target datalayout = "e-m:e-p270:32:32-p271:32:32-p272:64:64-i64:64-i128:128-f80:128-n8:16:32:64-S128"
target triple = "x86_64-pc-linux-gnu"

%struct.rust_demangler = type { ptr, i64, ptr, ptr, i64, i8, i8, i8, i32, i64 }
%struct.rust_mangled_ident = type { ptr, i64, ptr, i64 }

; Function Attrs: nounwind
define internal signext i8 @peek(ptr noundef %0) #0 {
  %2 = alloca i8, align 1
  %3 = alloca ptr, align 8
  store ptr %0, ptr %3, align 8, !tbaa !30
  %4 = load ptr, ptr %3, align 8, !tbaa !30
  %5 = getelementptr inbounds nuw %struct.rust_demangler, ptr %4, i32 0, i32 4
  %6 = load i64, ptr %5, align 8, !tbaa !18
  %7 = load ptr, ptr %3, align 8, !tbaa !30
  %8 = getelementptr inbounds nuw %struct.rust_demangler, ptr %7, i32 0, i32 1
  %9 = load i64, ptr %8, align 8, !tbaa !15
  %10 = icmp ult i64 %6, %9
  br i1 %10, label %11, label %20

11:                                               ; preds = %1
  %12 = load ptr, ptr %3, align 8, !tbaa !30
  %13 = getelementptr inbounds nuw %struct.rust_demangler, ptr %12, i32 0, i32 0
  %14 = load ptr, ptr %13, align 8, !tbaa !11
  %15 = load ptr, ptr %3, align 8, !tbaa !30
  %16 = getelementptr inbounds nuw %struct.rust_demangler, ptr %15, i32 0, i32 4
  %17 = load i64, ptr %16, align 8, !tbaa !18
  %18 = getelementptr inbounds nuw i8, ptr %14, i64 %17
  %19 = load i8, ptr %18, align 1, !tbaa !24
  store i8 %19, ptr %2, align 1
  br label %21

20:                                               ; preds = %1
  store i8 0, ptr %2, align 1
  br label %21

21:                                               ; preds = %20, %11
  %22 = load i8, ptr %2, align 1
  ret i8 %22
}

; Function Attrs: nounwind
define internal signext i8 @next(ptr noundef %0) #0 {
  %2 = alloca i8, align 1
  %3 = alloca ptr, align 8
  %4 = alloca i8, align 1
  %5 = alloca i32, align 4
  store ptr %0, ptr %3, align 8, !tbaa !30
  call void @llvm.lifetime.start.p0(i64 1, ptr %4) #8
  %6 = load ptr, ptr %3, align 8, !tbaa !30
  %7 = call signext i8 @peek(ptr noundef %6)
  store i8 %7, ptr %4, align 1, !tbaa !24
  br label %8

8:                                                ; preds = %1
  %9 = load i8, ptr %4, align 1, !tbaa !24
  %10 = icmp ne i8 %9, 0
  br i1 %10, label %17, label %11

11:                                               ; preds = %8
  br label %12

12:                                               ; preds = %11
  %13 = load ptr, ptr %3, align 8, !tbaa !30
  %14 = getelementptr inbounds nuw %struct.rust_demangler, ptr %13, i32 0, i32 5
  store i8 1, ptr %14, align 8, !tbaa !19
  store i8 0, ptr %2, align 1
  store i32 1, ptr %5, align 4
  br label %25

15:                                               ; No predecessors!
  br label %16

16:                                               ; preds = %15
  br label %17

17:                                               ; preds = %16, %8
  br label %18

18:                                               ; preds = %17
  br label %19

19:                                               ; preds = %18
  %20 = load ptr, ptr %3, align 8, !tbaa !30
  %21 = getelementptr inbounds nuw %struct.rust_demangler, ptr %20, i32 0, i32 4
  %22 = load i64, ptr %21, align 8, !tbaa !18
  %23 = add i64 %22, 1
  store i64 %23, ptr %21, align 8, !tbaa !18
  %24 = load i8, ptr %4, align 1, !tbaa !24
  store i8 %24, ptr %2, align 1
  store i32 1, ptr %5, align 4
  br label %25

25:                                               ; preds = %19, %12
  call void @llvm.lifetime.end.p0(i64 1, ptr %4) #8
  %26 = load i8, ptr %2, align 1
  ret i8 %26
}

; Function Attrs: nounwind
define internal zeroext i1 @eat(ptr noundef %0, i8 noundef signext %1) #0 {
  %3 = alloca i1, align 1
  %4 = alloca ptr, align 8
  %5 = alloca i8, align 1
  store ptr %0, ptr %4, align 8, !tbaa !30
  store i8 %1, ptr %5, align 1, !tbaa !24
  %6 = load ptr, ptr %4, align 8, !tbaa !30
  %7 = call signext i8 @peek(ptr noundef %6)
  %8 = sext i8 %7 to i32
  %9 = load i8, ptr %5, align 1, !tbaa !24
  %10 = sext i8 %9 to i32
  %11 = icmp eq i32 %8, %10
  br i1 %11, label %12, label %17

12:                                               ; preds = %2
  %13 = load ptr, ptr %4, align 8, !tbaa !30
  %14 = getelementptr inbounds nuw %struct.rust_demangler, ptr %13, i32 0, i32 4
  %15 = load i64, ptr %14, align 8, !tbaa !18
  %16 = add i64 %15, 1
  store i64 %16, ptr %14, align 8, !tbaa !18
  store i1 true, ptr %3, align 1
  br label %18

17:                                               ; preds = %2
  store i1 false, ptr %3, align 1
  br label %18

18:                                               ; preds = %17, %12
  %19 = load i1, ptr %3, align 1
  ret i1 %19
}

; Function Attrs: nounwind
define internal void @parse_ident(ptr dead_on_unwind noalias writable sret(%struct.rust_mangled_ident) align 8 %0, ptr noundef %1) #0 {
  %3 = alloca ptr, align 8
  %4 = alloca i8, align 1
  %5 = alloca i8, align 1
  %6 = alloca i32, align 4
  %7 = alloca i64, align 8
  %8 = alloca i64, align 8
  store ptr %1, ptr %3, align 8, !tbaa !30
  %9 = getelementptr inbounds nuw %struct.rust_mangled_ident, ptr %0, i32 0, i32 0
  store ptr null, ptr %9, align 8, !tbaa !34
  %10 = getelementptr inbounds nuw %struct.rust_mangled_ident, ptr %0, i32 0, i32 1
  store i64 0, ptr %10, align 8, !tbaa !45
  %11 = getelementptr inbounds nuw %struct.rust_mangled_ident, ptr %0, i32 0, i32 2
  store ptr null, ptr %11, align 8, !tbaa !36
  %12 = getelementptr inbounds nuw %struct.rust_mangled_ident, ptr %0, i32 0, i32 3
  store i64 0, ptr %12, align 8, !tbaa !46
  call void @llvm.lifetime.start.p0(i64 1, ptr %4) #8
  store i8 0, ptr %4, align 1, !tbaa !32
  %13 = load ptr, ptr %3, align 8, !tbaa !30
  %14 = getelementptr inbounds nuw %struct.rust_demangler, ptr %13, i32 0, i32 8
  %15 = load i32, ptr %14, align 4, !tbaa !22
  %16 = icmp ne i32 %15, -1
  br i1 %16, label %17, label %21

17:                                               ; preds = %2
  %18 = load ptr, ptr %3, align 8, !tbaa !30
  %19 = call zeroext i1 @eat(ptr noundef %18, i8 noundef signext 117)
  %20 = zext i1 %19 to i8
  store i8 %20, ptr %4, align 1, !tbaa !32
  br label %21

21:                                               ; preds = %17, %2
  call void @llvm.lifetime.start.p0(i64 1, ptr %5) #8
  %22 = load ptr, ptr %3, align 8, !tbaa !30
  %23 = call signext i8 @next(ptr noundef %22)
  store i8 %23, ptr %5, align 1, !tbaa !24
  br label %24

24:                                               ; preds = %21
  %25 = load i8, ptr %5, align 1, !tbaa !24
  %26 = sext i8 %25 to i32
  %27 = icmp sge i32 %26, 48
  br i1 %27, label %28, label %32

28:                                               ; preds = %24
  %29 = load i8, ptr %5, align 1, !tbaa !24
  %30 = sext i8 %29 to i32
  %31 = icmp sle i32 %30, 57
  br i1 %31, label %38, label %32

32:                                               ; preds = %28, %24
  br label %33

33:                                               ; preds = %32
  %34 = load ptr, ptr %3, align 8, !tbaa !30
  %35 = getelementptr inbounds nuw %struct.rust_demangler, ptr %34, i32 0, i32 5
  store i8 1, ptr %35, align 8, !tbaa !19
  store i32 1, ptr %6, align 4
  br label %174

36:                                               ; No predecessors!
  br label %37

37:                                               ; preds = %36
  br label %38

38:                                               ; preds = %37, %28
  br label %39

39:                                               ; preds = %38
  br label %40

40:                                               ; preds = %39
  call void @llvm.lifetime.start.p0(i64 8, ptr %7) #8
  %41 = load i8, ptr %5, align 1, !tbaa !24
  %42 = sext i8 %41 to i32
  %43 = sub nsw i32 %42, 48
  %44 = sext i32 %43 to i64
  store i64 %44, ptr %7, align 8, !tbaa !33
  %45 = load i8, ptr %5, align 1, !tbaa !24
  %46 = sext i8 %45 to i32
  %47 = icmp ne i32 %46, 48
  br i1 %47, label %48, label %71

48:                                               ; preds = %40
  br label %49

49:                                               ; preds = %61, %48
  %50 = load ptr, ptr %3, align 8, !tbaa !30
  %51 = call signext i8 @peek(ptr noundef %50)
  %52 = sext i8 %51 to i32
  %53 = icmp sge i32 %52, 48
  br i1 %53, label %54, label %59

54:                                               ; preds = %49
  %55 = load ptr, ptr %3, align 8, !tbaa !30
  %56 = call signext i8 @peek(ptr noundef %55)
  %57 = sext i8 %56 to i32
  %58 = icmp sle i32 %57, 57
  br label %59

59:                                               ; preds = %54, %49
  %60 = phi i1 [ false, %49 ], [ %58, %54 ]
  br i1 %60, label %61, label %70

61:                                               ; preds = %59
  %62 = load i64, ptr %7, align 8, !tbaa !33
  %63 = mul i64 %62, 10
  %64 = load ptr, ptr %3, align 8, !tbaa !30
  %65 = call signext i8 @next(ptr noundef %64)
  %66 = sext i8 %65 to i32
  %67 = sub nsw i32 %66, 48
  %68 = sext i32 %67 to i64
  %69 = add i64 %63, %68
  store i64 %69, ptr %7, align 8, !tbaa !33
  br label %49, !llvm.loop !47

70:                                               ; preds = %59
  br label %71

71:                                               ; preds = %70, %40
  %72 = load ptr, ptr %3, align 8, !tbaa !30
  %73 = getelementptr inbounds nuw %struct.rust_demangler, ptr %72, i32 0, i32 8
  %74 = load i32, ptr %73, align 4, !tbaa !22
  %75 = icmp ne i32 %74, -1
  br i1 %75, label %76, label %79

76:                                               ; preds = %71
  %77 = load ptr, ptr %3, align 8, !tbaa !30
  %78 = call zeroext i1 @eat(ptr noundef %77, i8 noundef signext 95)
  br label %79

79:                                               ; preds = %76, %71
  call void @llvm.lifetime.start.p0(i64 8, ptr %8) #8
  %80 = load ptr, ptr %3, align 8, !tbaa !30
  %81 = getelementptr inbounds nuw %struct.rust_demangler, ptr %80, i32 0, i32 4
  %82 = load i64, ptr %81, align 8, !tbaa !18
  store i64 %82, ptr %8, align 8, !tbaa !33
  %83 = load i64, ptr %7, align 8, !tbaa !33
  %84 = load ptr, ptr %3, align 8, !tbaa !30
  %85 = getelementptr inbounds nuw %struct.rust_demangler, ptr %84, i32 0, i32 4
  %86 = load i64, ptr %85, align 8, !tbaa !18
  %87 = add i64 %86, %83
  store i64 %87, ptr %85, align 8, !tbaa !18
  br label %88

88:                                               ; preds = %79
  %89 = load i64, ptr %8, align 8, !tbaa !33
  %90 = load ptr, ptr %3, align 8, !tbaa !30
  %91 = getelementptr inbounds nuw %struct.rust_demangler, ptr %90, i32 0, i32 4
  %92 = load i64, ptr %91, align 8, !tbaa !18
  %93 = icmp ule i64 %89, %92
  br i1 %93, label %94, label %102

94:                                               ; preds = %88
  %95 = load ptr, ptr %3, align 8, !tbaa !30
  %96 = getelementptr inbounds nuw %struct.rust_demangler, ptr %95, i32 0, i32 4
  %97 = load i64, ptr %96, align 8, !tbaa !18
  %98 = load ptr, ptr %3, align 8, !tbaa !30
  %99 = getelementptr inbounds nuw %struct.rust_demangler, ptr %98, i32 0, i32 1
  %100 = load i64, ptr %99, align 8, !tbaa !15
  %101 = icmp ule i64 %97, %100
  br i1 %101, label %108, label %102

102:                                              ; preds = %94, %88
  br label %103

103:                                              ; preds = %102
  %104 = load ptr, ptr %3, align 8, !tbaa !30
  %105 = getelementptr inbounds nuw %struct.rust_demangler, ptr %104, i32 0, i32 5
  store i8 1, ptr %105, align 8, !tbaa !19
  store i32 1, ptr %6, align 4
  br label %173

106:                                              ; No predecessors!
  br label %107

107:                                              ; preds = %106
  br label %108

108:                                              ; preds = %107, %94
  br label %109

109:                                              ; preds = %108
  br label %110

110:                                              ; preds = %109
  %111 = load ptr, ptr %3, align 8, !tbaa !30
  %112 = getelementptr inbounds nuw %struct.rust_demangler, ptr %111, i32 0, i32 0
  %113 = load ptr, ptr %112, align 8, !tbaa !11
  %114 = load i64, ptr %8, align 8, !tbaa !33
  %115 = getelementptr inbounds nuw i8, ptr %113, i64 %114
  %116 = getelementptr inbounds nuw %struct.rust_mangled_ident, ptr %0, i32 0, i32 0
  store ptr %115, ptr %116, align 8, !tbaa !34
  %117 = load i64, ptr %7, align 8, !tbaa !33
  %118 = getelementptr inbounds nuw %struct.rust_mangled_ident, ptr %0, i32 0, i32 1
  store i64 %117, ptr %118, align 8, !tbaa !45
  %119 = load i8, ptr %4, align 1, !tbaa !32, !range !27, !noundef !28
  %120 = trunc i8 %119 to i1
  br i1 %120, label %121, label %166

121:                                              ; preds = %110
  %122 = getelementptr inbounds nuw %struct.rust_mangled_ident, ptr %0, i32 0, i32 3
  store i64 0, ptr %122, align 8, !tbaa !46
  br label %123

123:                                              ; preds = %140, %121
  %124 = getelementptr inbounds nuw %struct.rust_mangled_ident, ptr %0, i32 0, i32 1
  %125 = load i64, ptr %124, align 8, !tbaa !45
  %126 = icmp ugt i64 %125, 0
  br i1 %126, label %127, label %144

127:                                              ; preds = %123
  %128 = getelementptr inbounds nuw %struct.rust_mangled_ident, ptr %0, i32 0, i32 1
  %129 = load i64, ptr %128, align 8, !tbaa !45
  %130 = add i64 %129, -1
  store i64 %130, ptr %128, align 8, !tbaa !45
  %131 = getelementptr inbounds nuw %struct.rust_mangled_ident, ptr %0, i32 0, i32 0
  %132 = load ptr, ptr %131, align 8, !tbaa !34
  %133 = getelementptr inbounds nuw %struct.rust_mangled_ident, ptr %0, i32 0, i32 1
  %134 = load i64, ptr %133, align 8, !tbaa !45
  %135 = getelementptr inbounds nuw i8, ptr %132, i64 %134
  %136 = load i8, ptr %135, align 1, !tbaa !24
  %137 = sext i8 %136 to i32
  %138 = icmp eq i32 %137, 95
  br i1 %138, label %139, label %140

139:                                              ; preds = %127
  br label %144

140:                                              ; preds = %127
  %141 = getelementptr inbounds nuw %struct.rust_mangled_ident, ptr %0, i32 0, i32 3
  %142 = load i64, ptr %141, align 8, !tbaa !46
  %143 = add i64 %142, 1
  store i64 %143, ptr %141, align 8, !tbaa !46
  br label %123, !llvm.loop !48

144:                                              ; preds = %139, %123
  br label %145

145:                                              ; preds = %144
  %146 = getelementptr inbounds nuw %struct.rust_mangled_ident, ptr %0, i32 0, i32 3
  %147 = load i64, ptr %146, align 8, !tbaa !46
  %148 = icmp ugt i64 %147, 0
  br i1 %148, label %155, label %149

149:                                              ; preds = %145
  br label %150

150:                                              ; preds = %149
  %151 = load ptr, ptr %3, align 8, !tbaa !30
  %152 = getelementptr inbounds nuw %struct.rust_demangler, ptr %151, i32 0, i32 5
  store i8 1, ptr %152, align 8, !tbaa !19
  store i32 1, ptr %6, align 4
  br label %173

153:                                              ; No predecessors!
  br label %154

154:                                              ; preds = %153
  br label %155

155:                                              ; preds = %154, %145
  br label %156

156:                                              ; preds = %155
  br label %157

157:                                              ; preds = %156
  %158 = getelementptr inbounds nuw %struct.rust_mangled_ident, ptr %0, i32 0, i32 0
  %159 = load ptr, ptr %158, align 8, !tbaa !34
  %160 = load i64, ptr %7, align 8, !tbaa !33
  %161 = getelementptr inbounds nuw %struct.rust_mangled_ident, ptr %0, i32 0, i32 3
  %162 = load i64, ptr %161, align 8, !tbaa !46
  %163 = sub i64 %160, %162
  %164 = getelementptr inbounds nuw i8, ptr %159, i64 %163
  %165 = getelementptr inbounds nuw %struct.rust_mangled_ident, ptr %0, i32 0, i32 2
  store ptr %164, ptr %165, align 8, !tbaa !36
  br label %166

166:                                              ; preds = %157, %110
  %167 = getelementptr inbounds nuw %struct.rust_mangled_ident, ptr %0, i32 0, i32 1
  %168 = load i64, ptr %167, align 8, !tbaa !45
  %169 = icmp eq i64 %168, 0
  br i1 %169, label %170, label %172

170:                                              ; preds = %166
  %171 = getelementptr inbounds nuw %struct.rust_mangled_ident, ptr %0, i32 0, i32 0
  store ptr null, ptr %171, align 8, !tbaa !34
  br label %172

172:                                              ; preds = %170, %166
  store i32 1, ptr %6, align 4
  br label %173

173:                                              ; preds = %172, %150, %103
  call void @llvm.lifetime.end.p0(i64 8, ptr %8) #8
  call void @llvm.lifetime.end.p0(i64 8, ptr %7) #8
  br label %174

174:                                              ; preds = %173, %33
  call void @llvm.lifetime.end.p0(i64 1, ptr %5) #8
  call void @llvm.lifetime.end.p0(i64 1, ptr %4) #8
  ret void
}