; Function Attrs: nofree norecurse nosync nounwind memory(read, argmem: readwrite, inaccessiblemem: none)
define internal fastcc void @parse_ident(ptr dead_on_unwind noalias nonnull writable writeonly align 8 captures(none) initializes((0, 32)) %0, ptr noundef nonnull captures(none) %1) unnamed_addr #4 {
  %3 = getelementptr inbounds nuw i8, ptr %0, i64 8
  %4 = getelementptr inbounds nuw i8, ptr %0, i64 16
  %5 = getelementptr inbounds nuw i8, ptr %0, i64 24
  %6 = getelementptr inbounds nuw i8, ptr %1, i64 44
  tail call void @llvm.memset.p0.i64(ptr noundef nonnull align 8 dereferenceable(32) %0, i8 0, i64 32, i1 false)
  %7 = load i32, ptr %6, align 4, !tbaa !20
  %.not = icmp ne i32 %7, -1
  %.phi.trans.insert = getelementptr inbounds nuw i8, ptr %1, i64 32
  %.pre = load i64, ptr %.phi.trans.insert, align 8, !tbaa !14
  %.phi.trans.insert75 = getelementptr inbounds nuw i8, ptr %1, i64 8
  %.pre76 = load i64, ptr %.phi.trans.insert75, align 8, !tbaa !3
  %8 = icmp ult i64 %.pre, %.pre76
  %or.cond84 = select i1 %.not, i1 %8, i1 false
  br i1 %or.cond84, label %peek.exit.i, label %eat.exit

peek.exit.i:                                      ; preds = %2
  %9 = load ptr, ptr %1, align 8, !tbaa !19
  %10 = getelementptr inbounds nuw i8, ptr %9, i64 %.pre
  %11 = load i8, ptr %10, align 1, !tbaa !21
  %12 = icmp eq i8 %11, 117
  br i1 %12, label %13, label %eat.exit

13:                                               ; preds = %peek.exit.i
  %14 = add nuw i64 %.pre, 1
  store i64 %14, ptr %.phi.trans.insert, align 8, !tbaa !14
  br label %eat.exit

eat.exit:                                         ; preds = %2, %13, %peek.exit.i
  %15 = phi i64 [ %.pre, %peek.exit.i ], [ %14, %13 ], [ %.pre, %2 ]
  %.0 = phi i1 [ false, %peek.exit.i ], [ true, %13 ], [ false, %2 ]
  %16 = getelementptr inbounds nuw i8, ptr %1, i64 32
  %17 = icmp ult i64 %15, %.pre76
  br i1 %17, label %peek.exit.i41, label %next.exit.thread

peek.exit.i41:                                    ; preds = %eat.exit
  %18 = load ptr, ptr %1, align 8, !tbaa !19
  %19 = getelementptr inbounds nuw i8, ptr %18, i64 %15
  %20 = load i8, ptr %19, align 1, !tbaa !21
  %.not.i = icmp eq i8 %20, 0
  br i1 %.not.i, label %next.exit.thread, label %next.exit

next.exit:                                        ; preds = %peek.exit.i41
  %21 = add nuw i64 %15, 1
  store i64 %21, ptr %16, align 8, !tbaa !14
  %22 = add i8 %20, -48
  %or.cond = icmp ult i8 %22, 10
  br i1 %or.cond, label %24, label %next.exit.thread

next.exit.thread:                                 ; preds = %peek.exit.i41, %eat.exit, %next.exit
  %23 = getelementptr inbounds nuw i8, ptr %1, i64 40
  store i8 1, ptr %23, align 8, !tbaa !15
  br label %66

24:                                               ; preds = %next.exit
  %25 = and i8 %20, 15
  %26 = zext nneg i8 %25 to i64
  %.not35 = icmp ne i8 %20, 48
  %27 = icmp ult i64 %21, %.pre76
  %or.cond85 = select i1 %.not35, i1 %27, i1 false
  br i1 %or.cond85, label %peek.exit, label %.critedge

peek.exit:                                        ; preds = %24, %next.exit49
  %.159 = phi i64 [ %36, %next.exit49 ], [ %26, %24 ]
  %28 = phi i64 [ %33, %next.exit49 ], [ %21, %24 ]
  %29 = getelementptr inbounds nuw i8, ptr %18, i64 %28
  %30 = load i8, ptr %29, align 1, !tbaa !21
  %31 = add i8 %30, -48
  %or.cond81 = icmp ult i8 %31, 10
  br i1 %or.cond81, label %next.exit49, label %.critedge

next.exit49:                                      ; preds = %peek.exit
  %32 = mul i64 %.159, 10
  %33 = add nuw i64 %28, 1
  store i64 %33, ptr %16, align 8, !tbaa !14
  %34 = zext nneg i8 %30 to i64
  %35 = add i64 %32, -48
  %36 = add i64 %35, %34
  %37 = icmp ult i64 %33, %.pre76
  br i1 %37, label %peek.exit, label %.critedge, !llvm.loop !41

.critedge:                                        ; preds = %peek.exit, %next.exit49, %24
  %38 = phi i64 [ %21, %24 ], [ %28, %peek.exit ], [ %33, %next.exit49 ]
  %.029 = phi i64 [ %26, %24 ], [ %.159, %peek.exit ], [ %36, %next.exit49 ]
  %39 = icmp ult i64 %38, %.pre76
  %or.cond87 = select i1 %.not, i1 %39, i1 false
  br i1 %or.cond87, label %peek.exit.i51, label %eat.exit52

peek.exit.i51:                                    ; preds = %.critedge
  %40 = getelementptr inbounds nuw i8, ptr %18, i64 %38
  %41 = load i8, ptr %40, align 1, !tbaa !21
  %42 = icmp eq i8 %41, 95
  %43 = zext i1 %42 to i64
  %spec.select = add nuw i64 %38, %43
  br label %eat.exit52

eat.exit52:                                       ; preds = %peek.exit.i51, %.critedge
  %44 = phi i64 [ %38, %.critedge ], [ %spec.select, %peek.exit.i51 ]
  %45 = add i64 %44, %.029
  store i64 %45, ptr %16, align 8, !tbaa !14
  %.not37 = icmp ugt i64 %44, %45
  %.not38 = icmp ugt i64 %45, %.pre76
  %or.cond57 = or i1 %.not37, %.not38
  br i1 %or.cond57, label %46, label %48

46:                                               ; preds = %eat.exit52
  %47 = getelementptr inbounds nuw i8, ptr %1, i64 40
  store i8 1, ptr %47, align 8, !tbaa !15
  br label %66

48:                                               ; preds = %eat.exit52
  %49 = getelementptr inbounds nuw i8, ptr %18, i64 %44
  store ptr %49, ptr %0, align 8, !tbaa !26
  store i64 %.029, ptr %3, align 8, !tbaa !42
  br i1 %.0, label %.preheader, label %62

.preheader:                                       ; preds = %48
  %.not3963 = icmp eq i64 %.029, 0
  br i1 %.not3963, label %.thread, label %.lr.ph

.thread:                                          ; preds = %.preheader
  store i64 0, ptr %5, align 8, !tbaa !43
  br label %57

.lr.ph:                                           ; preds = %.preheader, %55
  %storemerge64 = phi i64 [ %56, %55 ], [ 0, %.preheader ]
  %50 = phi i64 [ %51, %55 ], [ %.029, %.preheader ]
  %51 = add i64 %50, -1
  %52 = getelementptr inbounds nuw i8, ptr %49, i64 %51
  %53 = load i8, ptr %52, align 1, !tbaa !21
  %54 = icmp eq i8 %53, 95
  br i1 %54, label %._crit_edge, label %55

55:                                               ; preds = %.lr.ph
  %56 = add nuw i64 %storemerge64, 1
  %.not39 = icmp eq i64 %51, 0
  br i1 %.not39, label %._crit_edge, label %.lr.ph, !llvm.loop !44

._crit_edge:                                      ; preds = %.lr.ph, %55
  %.lcssa.sink = phi i64 [ 0, %55 ], [ %51, %.lr.ph ]
  %storemerge.lcssa62 = phi i64 [ %.029, %55 ], [ %storemerge64, %.lr.ph ]
  store i64 %.lcssa.sink, ptr %3, align 8, !tbaa !42
  store i64 %storemerge.lcssa62, ptr %5, align 8, !tbaa !43
  %.not40 = icmp eq i64 %storemerge.lcssa62, 0
  br i1 %.not40, label %57, label %59

57:                                               ; preds = %.thread, %._crit_edge
  %58 = getelementptr inbounds nuw i8, ptr %1, i64 40
  store i8 1, ptr %58, align 8, !tbaa !15
  br label %66

59:                                               ; preds = %._crit_edge
  %60 = sub i64 %.029, %storemerge.lcssa62
  %61 = getelementptr inbounds nuw i8, ptr %49, i64 %60
  store ptr %61, ptr %4, align 8, !tbaa !45
  br label %62

62:                                               ; preds = %59, %48
  %63 = phi i64 [ %51, %59 ], [ %.029, %48 ]
  %64 = icmp eq i64 %63, 0
  br i1 %64, label %65, label %66

65:                                               ; preds = %62
  store ptr null, ptr %0, align 8, !tbaa !26
  br label %66

66:                                               ; preds = %46, %57, %65, %62, %next.exit.thread
  ret void
}